-----BEGIN CERTIFICATE-----
MIIDjTCCAnWgAwIBAgIBBjANBgkqhkiG9w0BAQ0FADA1MQ0wCwYDVQQKDARTSUlT
MREwDwYDVQQLDAhTSUlTX0lvVDERMA8GA1UEAwwIU2VudGluZWwwHhcNMjAwNTI4
MDA0ODE3WhcNNDcxMDEzMDA0ODE3WjBqMQswCQYDVQQGEwJVUzELMAkGA1UECAwC
UEExDTALBgNVBAoMBFNJSVMxETAPBgNVBAsMCFNJSVNfSW9UMQwwCgYDVQQDDANo
dWIxHjAcBgkqhkiG9w0BCQEWD2FtYzExMDNAcHN1LmVkdTCCASIwDQYJKoZIhvcN
AQEBBQADggEPADCCAQoCggEBAL4yah9CETDJX1Yzb5m9UfqaX3RG7OWU2NM98ayP
2Ozc9GS5GKjm0AwKGK47cmGPPxka+RRjBbZ/4SKsFZB4+HDK7zvtWmiCP85Zn8IA
5vbN7Tzq/9QvlSAnNTITNl97Q+XxdkgHERjIVfRB5OnRgtrjePWU+oGQzQ+sP+mx
saSJeEs8kmFPCtPUFSTji2YSFpaC8QRotCx0WRLoM3NvwyHHW0VUfdPLeOa6+vz1
dnnVL2I2XwycqICLJ23EU5z7Jr3OQuFhFrzHkt0nGl6myTyu9p1FfvgF5pfSQG72
PYy7E0JSGKOQUFKB4NWTRw10yU2Axy8KGraLDUGlaypAwNcCAwEAAaNzMHEwGgYD
VR0RBBMwEYEPYW1jMTEwM0Bwc3UuZWR1MB0GA1UdDgQWBBTWij3t5OUNAUOZ4poW
0Dl9Q6zUNjAPBgNVHRMBAf8EBTADAgEAMBMGA1UdJQQMMAoGCCsGAQUFBwMCMA4G
A1UdDwEB/wQEAwIDqDANBgkqhkiG9w0BAQ0FAAOCAQEAiOn7IMDBQLJuPMpSR+Po
N0xb5dV034yE+Yl1jluptMODxQyaT3W2JykLMwdHPF3HpMIrGKXgkVHNGBOeBG0d
LlBMmY60ARyNYK2y5Ia7Ezf/Us7UMGBdosPn2E/XPaJwr5q5Uvo+2SjRwStjV82l
NUH1AEUuPN4CX7N4XkYipi2+i0vf/RSUjTft/+8WKffFs5zSY/PcMLKwVSB3c7SE
huR7Vx35FVwtkoqk24tsuhnx2zibsBY1eKSNY4Somva/IlTYuiCbOZH0gg5ROJya
rMvABcX68RqOInDnk5GI+i1mK4W4T2mqiICN4euvDBxUljFZBuIaqWMek24+2SaL
KA==
-----END CERTIFICATE-----
Certificate:
    Data:
        Version: 3 (0x2)
        Serial Number: 1 (0x1)
        Signature Algorithm: sha512WithRSAEncryption
        Issuer: O=SIIS, OU=SIIS_IoT, CN=Sentinel
        Validity
            Not Before: May 28 00:40:51 2020 GMT
            Not After : Oct 13 00:40:51 2047 GMT
        Subject: O=SIIS, OU=SIIS_IoT, CN=Sentinel
        Subject Public Key Info:
            Public Key Algorithm: rsaEncryption
                RSA Public-Key: (2048 bit)
                Modulus:
                    00:ba:31:4f:76:1d:52:b7:e0:1f:c5:1c:ff:9d:d3:
                    7f:52:4e:3d:19:49:c1:f4:07:7e:08:50:b4:97:0a:
                    bb:74:54:f6:93:af:9b:cb:44:11:e9:2b:84:34:be:
                    eb:f9:ec:25:a2:f9:6e:0a:98:f0:f6:de:fa:52:c7:
                    57:62:de:cf:38:32:42:6f:ac:42:70:21:f7:90:5c:
                    6b:3f:86:76:3e:53:b0:c6:9a:9a:55:9a:0e:87:e1:
                    39:a6:4e:c1:53:b4:40:c9:b9:b4:89:1d:36:75:eb:
                    66:f7:9d:0c:66:d7:64:af:c4:5f:d6:67:d9:11:50:
                    dd:c6:77:fe:b1:51:cf:89:4a:ac:3e:0f:f7:01:a6:
                    40:04:f3:ba:99:15:ae:b3:a9:35:aa:bb:6d:1b:bc:
                    8d:d7:9d:91:be:8f:41:94:f4:a2:4a:31:69:5c:e8:
                    83:8c:a7:d6:02:5d:62:17:76:53:6a:1c:d9:d2:64:
                    77:ba:ab:c1:0c:ad:54:15:34:16:d7:e0:7e:eb:f2:
                    a1:c7:55:31:08:bd:04:de:53:d3:b2:ac:fd:db:e3:
                    22:2c:04:e7:e5:48:43:d2:91:12:af:35:33:29:a6:
                    af:51:b4:cd:1f:fe:dc:21:7c:fc:e4:47:44:de:cb:
                    95:79:00:f2:07:87:ed:57:98:b8:11:cc:81:06:bc:
                    4c:0b
                Exponent: 65537 (0x10001)
        X509v3 extensions:
            X509v3 Subject Key Identifier: 
                0A:A8:73:C1:B7:BE:95:A2:3B:49:D1:9B:13:D2:A0:42:F0:F7:E3:E3
            X509v3 Authority Key Identifier: 
                keyid:0A:A8:73:C1:B7:BE:95:A2:3B:49:D1:9B:13:D2:A0:42:F0:F7:E3:E3
                DirName:/O=SIIS/OU=SIIS_IoT/CN=Sentinel
                serial:01

            X509v3 Basic Constraints: critical
                CA:TRUE, pathlen:2
            X509v3 CRL Distribution Points: 

                Full Name:
                  URI:https://siis.cse.psu.edu/crl/CA/

            X509v3 Key Usage: critical
                Certificate Sign, CRL Sign
    Signature Algorithm: sha512WithRSAEncryption
         b0:16:e2:ad:f1:01:33:b2:e9:28:1d:b8:54:7d:0e:eb:41:61:
         ad:ec:b7:6e:4c:b9:01:90:01:1b:3b:6e:b3:0f:40:f9:db:92:
         98:25:60:27:19:0a:07:6f:53:12:ef:6d:37:46:93:55:8c:d7:
         d4:80:7a:3a:60:76:42:52:a0:7a:91:d9:af:1d:3f:c6:e0:a8:
         17:ac:75:3d:7b:d0:84:16:7e:87:3f:c6:dd:9d:0f:de:ba:57:
         d7:41:b4:60:f2:9b:fc:e0:22:96:b2:69:65:93:cd:81:d7:1c:
         19:e9:a3:17:c0:ae:a9:67:63:b1:47:c9:3d:8f:98:15:5f:58:
         12:67:05:75:e3:9a:13:20:c3:90:a0:7c:43:08:dd:86:24:31:
         7d:44:94:27:e2:1b:85:d7:85:c8:40:79:0e:60:76:e1:ba:0c:
         03:23:71:26:c8:b1:f4:7c:f3:29:b9:5e:2c:be:de:39:75:d4:
         7b:b8:e3:07:12:d5:5e:01:2a:08:f0:db:51:0f:9a:6a:82:91:
         05:a1:f6:e5:77:19:db:83:ac:21:1e:7b:ec:15:5b:d9:b3:e4:
         32:34:71:7d:29:1e:31:16:41:22:39:74:f5:d9:84:ca:c7:ef:
         16:7a:01:13:c6:6e:51:ef:4b:66:50:2b:b6:d7:d4:1f:0e:cc:
         bf:c9:55:92
-----BEGIN CERTIFICATE-----
MIIDvjCCAqagAwIBAgIBATANBgkqhkiG9w0BAQ0FADA1MQ0wCwYDVQQKDARTSUlT
MREwDwYDVQQLDAhTSUlTX0lvVDERMA8GA1UEAwwIU2VudGluZWwwHhcNMjAwNTI4
MDA0MDUxWhcNNDcxMDEzMDA0MDUxWjA1MQ0wCwYDVQQKDARTSUlTMREwDwYDVQQL
DAhTSUlTX0lvVDERMA8GA1UEAwwIU2VudGluZWwwggEiMA0GCSqGSIb3DQEBAQUA
A4IBDwAwggEKAoIBAQC6MU92HVK34B/FHP+d039STj0ZScH0B34IULSXCrt0VPaT
r5vLRBHpK4Q0vuv57CWi+W4KmPD23vpSx1di3s84MkJvrEJwIfeQXGs/hnY+U7DG
mppVmg6H4TmmTsFTtEDJubSJHTZ162b3nQxm12SvxF/WZ9kRUN3Gd/6xUc+JSqw+
D/cBpkAE87qZFa6zqTWqu20bvI3XnZG+j0GU9KJKMWlc6IOMp9YCXWIXdlNqHNnS
ZHe6q8EMrVQVNBbX4H7r8qHHVTEIvQTeU9OyrP3b4yIsBOflSEPSkRKvNTMppq9R
tM0f/twhfPzkR0Tey5V5APIHh+1XmLgRzIEGvEwLAgMBAAGjgdgwgdUwHQYDVR0O
BBYEFAqoc8G3vpWiO0nRmxPSoELw9+PjMF0GA1UdIwRWMFSAFAqoc8G3vpWiO0nR
mxPSoELw9+PjoTmkNzA1MQ0wCwYDVQQKDARTSUlTMREwDwYDVQQLDAhTSUlTX0lv
VDERMA8GA1UEAwwIU2VudGluZWyCAQEwEgYDVR0TAQH/BAgwBgEB/wIBAjAxBgNV
HR8EKjAoMCagJKAihiBodHRwczovL3NpaXMuY3NlLnBzdS5lZHUvY3JsL0NBLzAO
BgNVHQ8BAf8EBAMCAQYwDQYJKoZIhvcNAQENBQADggEBALAW4q3xATOy6SgduFR9
DutBYa3st25MuQGQARs7brMPQPnbkpglYCcZCgdvUxLvbTdGk1WM19SAejpgdkJS
oHqR2a8dP8bgqBesdT170IQWfoc/xt2dD966V9dBtGDym/zgIpayaWWTzYHXHBnp
oxfArqlnY7FHyT2PmBVfWBJnBXXjmhMgw5CgfEMI3YYkMX1ElCfiG4XXhchAeQ5g
duG6DAMjcSbIsfR88ym5Xiy+3jl11Hu44wcS1V4BKgjw21EPmmqCkQWh9uV3GduD
rCEee+wVW9mz5DI0cX0pHjEWQSI5dPXZhMrH7xZ6ARPGblHvS2ZQK7bX1B8OzL/J
VZI=
-----END CERTIFICATE-----
